; Function Attrs: nounwind uwtable
define noalias noundef nonnull ptr @l___private_Lean_Meta_Tactic_Grind_PP_0__Lean_Meta_Grind_ppEqcs___lambda__1(ptr noundef %0, ptr readnone captures(none) %1, ptr readnone captures(none) %2, ptr noundef %3, ptr readnone captures(none) %4, ptr readnone captures(none) %5, ptr readnone captures(none) %6, ptr readnone captures(none) %7, ptr noundef %8) local_unnamed_addr #0 {
  %10 = tail call zeroext i8 @l_Array_isEmpty___rarg(ptr noundef %0) #4
  %11 = icmp eq i8 %10, 0
  br i1 %11, label %12, label %32

12:                                               ; preds = %9
  %13 = load ptr, ptr @l_List_forIn_x27_loop___at___private_Lean_Meta_Tactic_Grind_PP_0__Lean_Meta_Grind_ppEqcs___spec__3___closed__5, align 8, !tbaa !10
  %14 = load ptr, ptr @l___private_Lean_Meta_Tactic_Grind_PP_0__Lean_Meta_Grind_ppEqcs___lambda__1___closed__3, align 8, !tbaa !10
  tail call void @lean_inc_heartbeat() #4
  %15 = tail call noalias ptr @mi_malloc_small(i64 noundef 32) #4
  %16 = icmp eq ptr %15, null
  br i1 %16, label %17, label %lean_alloc_ctor.exit

17:                                               ; preds = %12
  tail call void @lean_internal_panic_out_of_memory() #5
  unreachable

lean_alloc_ctor.exit:                             ; preds = %12
  %18 = getelementptr inbounds nuw i8, ptr %15, i64 4
  store i32 1, ptr %15, align 4, !tbaa !4
  store i32 151191584, ptr %18, align 4
  %19 = getelementptr inbounds nuw i8, ptr %15, i64 8
  store ptr %13, ptr %19, align 8, !tbaa !10
  %20 = getelementptr inbounds nuw i8, ptr %15, i64 16
  store ptr %14, ptr %20, align 8, !tbaa !10
  %21 = getelementptr inbounds nuw i8, ptr %15, i64 24
  store ptr %0, ptr %21, align 8, !tbaa !10
  %22 = tail call ptr @lean_array_push(ptr noundef %3, ptr noundef nonnull %15) #4
  tail call void @lean_inc_heartbeat() #4
  %23 = tail call noalias ptr @mi_malloc_small(i64 noundef 24) #4
  %24 = icmp eq ptr %23, null
  br i1 %24, label %25, label %lean_alloc_ctor.exit.i

25:                                               ; preds = %lean_alloc_ctor.exit
  tail call void @lean_internal_panic_out_of_memory() #5
  unreachable

lean_alloc_ctor.exit.i:                           ; preds = %lean_alloc_ctor.exit
  %26 = getelementptr inbounds nuw i8, ptr %23, i64 4
  store i32 1, ptr %23, align 4, !tbaa !4
  store i32 131096, ptr %26, align 4
  %27 = getelementptr inbounds nuw i8, ptr %23, i64 8
  store ptr inttoptr (i64 1 to ptr), ptr %27, align 8, !tbaa !10
  %28 = getelementptr inbounds nuw i8, ptr %23, i64 16
  store ptr %22, ptr %28, align 8, !tbaa !10
  tail call void @lean_inc_heartbeat() #4
  %29 = tail call noalias ptr @mi_malloc_small(i64 noundef 24) #4
  %30 = icmp eq ptr %29, null
  br i1 %30, label %31, label %l___private_Lean_Meta_Tactic_Grind_PP_0__Lean_Meta_Grind_pushMsg.exit

31:                                               ; preds = %lean_alloc_ctor.exit.i
  tail call void @lean_internal_panic_out_of_memory() #5
  unreachable

32:                                               ; preds = %9
  %33 = ptrtoint ptr %0 to i64
  %34 = and i64 %33, 1
  %.not = icmp eq i64 %34, 0
  br i1 %.not, label %35, label %lean_dec.exit

35:                                               ; preds = %32
  %36 = load i32, ptr %0, align 4, !tbaa !4
  %37 = icmp sgt i32 %36, 1
  br i1 %37, label %38, label %40, !prof !9

38:                                               ; preds = %35
  %39 = add nsw i32 %36, -1
  store i32 %39, ptr %0, align 4, !tbaa !4
  br label %lean_dec.exit

40:                                               ; preds = %35
  %.not.i = icmp eq i32 %36, 0
  br i1 %.not.i, label %lean_dec.exit, label %41

41:                                               ; preds = %40
  tail call void @lean_dec_ref_cold(ptr noundef nonnull %0) #4
  br label %lean_dec.exit

lean_dec.exit:                                    ; preds = %41, %40, %38, %32
  tail call void @lean_inc_heartbeat() #4
  %42 = tail call noalias ptr @mi_malloc_small(i64 noundef 24) #4
  %43 = icmp eq ptr %42, null
  br i1 %43, label %44, label %lean_alloc_ctor.exit27

44:                                               ; preds = %lean_dec.exit
  tail call void @lean_internal_panic_out_of_memory() #5
  unreachable

lean_alloc_ctor.exit27:                           ; preds = %lean_dec.exit
  %45 = getelementptr inbounds nuw i8, ptr %42, i64 4
  store i32 1, ptr %42, align 4, !tbaa !4
  store i32 131096, ptr %45, align 4
  %46 = getelementptr inbounds nuw i8, ptr %42, i64 8
  store ptr inttoptr (i64 1 to ptr), ptr %46, align 8, !tbaa !10
  %47 = getelementptr inbounds nuw i8, ptr %42, i64 16
  store ptr %3, ptr %47, align 8, !tbaa !10
  tail call void @lean_inc_heartbeat() #4
  %48 = tail call noalias ptr @mi_malloc_small(i64 noundef 24) #4
  %49 = icmp eq ptr %48, null
  br i1 %49, label %50, label %l___private_Lean_Meta_Tactic_Grind_PP_0__Lean_Meta_Grind_pushMsg.exit

50:                                               ; preds = %lean_alloc_ctor.exit27
  tail call void @lean_internal_panic_out_of_memory() #5
  unreachable

l___private_Lean_Meta_Tactic_Grind_PP_0__Lean_Meta_Grind_pushMsg.exit: ; preds = %lean_alloc_ctor.exit27, %lean_alloc_ctor.exit.i
  %.sink34 = phi ptr [ %29, %lean_alloc_ctor.exit.i ], [ %48, %lean_alloc_ctor.exit27 ]
  %.sink = phi ptr [ %23, %lean_alloc_ctor.exit.i ], [ %42, %lean_alloc_ctor.exit27 ]
  %51 = getelementptr inbounds nuw i8, ptr %.sink34, i64 4
  store i32 1, ptr %.sink34, align 4, !tbaa !4
  store i32 131096, ptr %51, align 4
  %52 = getelementptr inbounds nuw i8, ptr %.sink34, i64 8
  store ptr %.sink, ptr %52, align 8, !tbaa !10
  %53 = getelementptr inbounds nuw i8, ptr %.sink34, i64 16
  store ptr %8, ptr %53, align 8, !tbaa !10
  ret ptr %.sink34
}